target datalayout = "e-m:e-p270:32:32-p271:32:32-p272:64:64-i64:64-i128:128-f80:128-n8:16:32:64-S128"
target triple = "x86_64-pc-linux-gnu"

%struct.stat = type { i64, i64, i64, i32, i32, i32, i32, i64, i64, i64, i64, %struct.timespec, %struct.timespec, %struct.timespec, [3 x i64] }
%struct.timespec = type { i64, i64 }
%struct.dirent = type { i64, i64, i16, i8, [256 x i8] }

@.str = private unnamed_addr constant [6 x i8] c"%s/%s\00", align 1
@.str.1 = private unnamed_addr constant [8 x i8] c"pg_xlog\00", align 1
@.str.2 = private unnamed_addr constant [7 x i8] c"pg_wal\00", align 1
@.str.3 = private unnamed_addr constant [10 x i8] c"pg_tblspc\00", align 1
@.str.4 = private unnamed_addr constant [29 x i8] c"could not stat file \22%s\22: %m\00", align 1
@.str.5 = private unnamed_addr constant [34 x i8] c"could not open directory \22%s\22: %m\00", align 1
@.str.6 = private unnamed_addr constant [2 x i8] c".\00", align 1
@.str.7 = private unnamed_addr constant [3 x i8] c"..\00", align 1
@.str.8 = private unnamed_addr constant [34 x i8] c"could not read directory \22%s\22: %m\00", align 1

; Function Attrs: nounwind uwtable
define void @sync_pgdata(ptr noundef %0, i32 noundef %1, i32 noundef %2) #0 {
  %4 = alloca ptr, align 8
  %5 = alloca i32, align 4
  %6 = alloca i32, align 4
  %7 = alloca i8, align 1
  %8 = alloca [1024 x i8], align 16
  %9 = alloca [1024 x i8], align 16
  %10 = alloca %struct.stat, align 8
  %11 = alloca ptr, align 8
  %12 = alloca ptr, align 8
  %13 = alloca [2048 x i8], align 16
  %14 = alloca i32, align 4
  store ptr %0, ptr %4, align 8
  store i32 %1, ptr %5, align 4
  store i32 %2, ptr %6, align 4
  call void @llvm.lifetime.start.p0(i64 1, ptr %7) #9
  call void @llvm.lifetime.start.p0(i64 1024, ptr %8) #9
  call void @llvm.lifetime.start.p0(i64 1024, ptr %9) #9
  %15 = getelementptr inbounds [1024 x i8], ptr %8, i64 0, i64 0
  %16 = load ptr, ptr %4, align 8
  %17 = load i32, ptr %5, align 4
  %18 = icmp slt i32 %17, 100000
  %19 = select i1 %18, ptr @.str.1, ptr @.str.2
  %20 = call i32 (ptr, i64, ptr, ...) @pg_snprintf(ptr noundef %15, i64 noundef 1024, ptr noundef @.str, ptr noundef %16, ptr noundef %19)
  %21 = getelementptr inbounds [1024 x i8], ptr %9, i64 0, i64 0
  %22 = load ptr, ptr %4, align 8
  %23 = call i32 (ptr, i64, ptr, ...) @pg_snprintf(ptr noundef %21, i64 noundef 1024, ptr noundef @.str, ptr noundef %22, ptr noundef @.str.3)
  store i8 0, ptr %7, align 1
  call void @llvm.lifetime.start.p0(i64 144, ptr %10) #9
  %24 = getelementptr inbounds [1024 x i8], ptr %8, i64 0, i64 0
  %25 = call i32 @lstat(ptr noundef %24, ptr noundef %10) #9
  %26 = icmp slt i32 %25, 0
  br i1 %26, label %27, label %29

27:                                               ; preds = %3
  %28 = getelementptr inbounds [1024 x i8], ptr %8, i64 0, i64 0
  call void (i32, i32, ptr, ...) @pg_log_generic(i32 noundef 4, i32 noundef 0, ptr noundef @.str.4, ptr noundef %28)
  br label %36

29:                                               ; preds = %3
  %30 = getelementptr inbounds nuw %struct.stat, ptr %10, i32 0, i32 3
  %31 = load i32, ptr %30, align 8
  %32 = and i32 %31, 61440
  %33 = icmp eq i32 %32, 40960
  br i1 %33, label %34, label %35

34:                                               ; preds = %29
  store i8 1, ptr %7, align 1
  br label %35

35:                                               ; preds = %34, %29
  br label %36

36:                                               ; preds = %35, %27
  call void @llvm.lifetime.end.p0(i64 144, ptr %10) #9
  %37 = load i32, ptr %6, align 4
  switch i32 %37, label %106 [
    i32 1, label %38
    i32 0, label %91
  ]

38:                                               ; preds = %36
  call void @llvm.lifetime.start.p0(i64 8, ptr %11) #9
  call void @llvm.lifetime.start.p0(i64 8, ptr %12) #9
  %39 = load ptr, ptr %4, align 8
  call void @do_syncfs(ptr noundef %39)
  %40 = getelementptr inbounds [1024 x i8], ptr %9, i64 0, i64 0
  %41 = call ptr @opendir(ptr noundef %40)
  store ptr %41, ptr %11, align 8
  %42 = load ptr, ptr %11, align 8
  %43 = icmp eq ptr %42, null
  br i1 %43, label %44, label %46

44:                                               ; preds = %38
  %45 = getelementptr inbounds [1024 x i8], ptr %9, i64 0, i64 0
  call void (i32, i32, ptr, ...) @pg_log_generic(i32 noundef 4, i32 noundef 0, ptr noundef @.str.5, ptr noundef %45)
  br label %85

46:                                               ; preds = %38
  br label %47

47:                                               ; preds = %75, %73, %46
  %48 = call ptr @__errno_location() #10
  store i32 0, ptr %48, align 4
  %49 = load ptr, ptr %11, align 8
  %50 = call ptr @readdir(ptr noundef %49)
  store ptr %50, ptr %12, align 8
  %51 = icmp ne ptr %50, null
  br i1 %51, label %52, label %76

52:                                               ; preds = %47
  call void @llvm.lifetime.start.p0(i64 2048, ptr %13) #9
  %53 = load ptr, ptr %12, align 8
  %54 = getelementptr inbounds nuw %struct.dirent, ptr %53, i32 0, i32 4
  %55 = getelementptr inbounds [256 x i8], ptr %54, i64 0, i64 0
  %56 = call i32 @strcmp(ptr noundef %55, ptr noundef @.str.6) #11
  %57 = icmp eq i32 %56, 0
  br i1 %57, label %64, label %58

58:                                               ; preds = %52
  %59 = load ptr, ptr %12, align 8
  %60 = getelementptr inbounds nuw %struct.dirent, ptr %59, i32 0, i32 4
  %61 = getelementptr inbounds [256 x i8], ptr %60, i64 0, i64 0
  %62 = call i32 @strcmp(ptr noundef %61, ptr noundef @.str.7) #11
  %63 = icmp eq i32 %62, 0
  br i1 %63, label %64, label %65

64:                                               ; preds = %58, %52
  store i32 3, ptr %14, align 4
  br label %73, !llvm.loop !3

65:                                               ; preds = %58
  %66 = getelementptr inbounds [2048 x i8], ptr %13, i64 0, i64 0
  %67 = getelementptr inbounds [1024 x i8], ptr %9, i64 0, i64 0
  %68 = load ptr, ptr %12, align 8
  %69 = getelementptr inbounds nuw %struct.dirent, ptr %68, i32 0, i32 4
  %70 = getelementptr inbounds [256 x i8], ptr %69, i64 0, i64 0
  %71 = call i32 (ptr, i64, ptr, ...) @pg_snprintf(ptr noundef %66, i64 noundef 2048, ptr noundef @.str, ptr noundef %67, ptr noundef %70)
  %72 = getelementptr inbounds [2048 x i8], ptr %13, i64 0, i64 0
  call void @do_syncfs(ptr noundef %72)
  store i32 0, ptr %14, align 4
  br label %73

73:                                               ; preds = %65, %64
  call void @llvm.lifetime.end.p0(i64 2048, ptr %13) #9
  %74 = load i32, ptr %14, align 4
  switch i32 %74, label %107 [
    i32 0, label %75
    i32 3, label %47
  ]

75:                                               ; preds = %73
  br label %47, !llvm.loop !3

76:                                               ; preds = %47
  %77 = call ptr @__errno_location() #10
  %78 = load i32, ptr %77, align 4
  %79 = icmp ne i32 %78, 0
  br i1 %79, label %80, label %82

80:                                               ; preds = %76
  %81 = getelementptr inbounds [1024 x i8], ptr %9, i64 0, i64 0
  call void (i32, i32, ptr, ...) @pg_log_generic(i32 noundef 4, i32 noundef 0, ptr noundef @.str.8, ptr noundef %81)
  br label %82

82:                                               ; preds = %80, %76
  %83 = load ptr, ptr %11, align 8
  %84 = call i32 @closedir(ptr noundef %83)
  br label %85

85:                                               ; preds = %82, %44
  %86 = load i8, ptr %7, align 1, !range !5, !noundef !6
  %87 = trunc i8 %86 to i1
  br i1 %87, label %88, label %90

88:                                               ; preds = %85
  %89 = getelementptr inbounds [1024 x i8], ptr %8, i64 0, i64 0
  call void @do_syncfs(ptr noundef %89)
  br label %90

90:                                               ; preds = %88, %85
  call void @llvm.lifetime.end.p0(i64 8, ptr %12) #9
  call void @llvm.lifetime.end.p0(i64 8, ptr %11) #9
  br label %106

91:                                               ; preds = %36
  %92 = load ptr, ptr %4, align 8
  call void @walkdir(ptr noundef %92, ptr noundef @pre_sync_fname, i1 noundef zeroext false)
  %93 = load i8, ptr %7, align 1, !range !5, !noundef !6
  %94 = trunc i8 %93 to i1
  br i1 %94, label %95, label %97

95:                                               ; preds = %91
  %96 = getelementptr inbounds [1024 x i8], ptr %8, i64 0, i64 0
  call void @walkdir(ptr noundef %96, ptr noundef @pre_sync_fname, i1 noundef zeroext false)
  br label %97

97:                                               ; preds = %95, %91
  %98 = getelementptr inbounds [1024 x i8], ptr %9, i64 0, i64 0
  call void @walkdir(ptr noundef %98, ptr noundef @pre_sync_fname, i1 noundef zeroext true)
  %99 = load ptr, ptr %4, align 8
  call void @walkdir(ptr noundef %99, ptr noundef @fsync_fname, i1 noundef zeroext false)
  %100 = load i8, ptr %7, align 1, !range !5, !noundef !6
  %101 = trunc i8 %100 to i1
  br i1 %101, label %102, label %104

102:                                              ; preds = %97
  %103 = getelementptr inbounds [1024 x i8], ptr %8, i64 0, i64 0
  call void @walkdir(ptr noundef %103, ptr noundef @fsync_fname, i1 noundef zeroext false)
  br label %104

104:                                              ; preds = %102, %97
  %105 = getelementptr inbounds [1024 x i8], ptr %9, i64 0, i64 0
  call void @walkdir(ptr noundef %105, ptr noundef @fsync_fname, i1 noundef zeroext true)
  br label %106

106:                                              ; preds = %36, %104, %90
  call void @llvm.lifetime.end.p0(i64 1024, ptr %9) #9
  call void @llvm.lifetime.end.p0(i64 1024, ptr %8) #9
  call void @llvm.lifetime.end.p0(i64 1, ptr %7) #9
  ret void

107:                                              ; preds = %73
  unreachable
}