; Function Attrs: nounwind uwtable
define void @sync_pgdata(ptr noundef %0, i32 noundef %1, i32 noundef %2) local_unnamed_addr #0 {
  %4 = alloca [1024 x i8], align 16
  %5 = alloca [1024 x i8], align 16
  %6 = alloca %struct.stat, align 8
  %7 = alloca [2048 x i8], align 16
  call void @llvm.lifetime.start.p0(i64 1024, ptr nonnull %4) #11
  call void @llvm.lifetime.start.p0(i64 1024, ptr nonnull %5) #11
  %8 = icmp slt i32 %1, 100000
  %9 = select i1 %8, ptr @.str.1, ptr @.str.2
  %10 = call i32 (ptr, i64, ptr, ...) @pg_snprintf(ptr noundef nonnull %4, i64 noundef 1024, ptr noundef nonnull @.str, ptr noundef %0, ptr noundef nonnull %9) #11
  %11 = call i32 (ptr, i64, ptr, ...) @pg_snprintf(ptr noundef nonnull %5, i64 noundef 1024, ptr noundef nonnull @.str, ptr noundef %0, ptr noundef nonnull @.str.3) #11
  call void @llvm.lifetime.start.p0(i64 144, ptr nonnull %6) #11
  %12 = call i32 @lstat(ptr noundef nonnull %4, ptr noundef nonnull %6) #11
  %13 = icmp slt i32 %12, 0
  br i1 %13, label %14, label %15

14:                                               ; preds = %3
  call void (i32, i32, ptr, ...) @pg_log_generic(i32 noundef 4, i32 noundef 0, ptr noundef nonnull @.str.4, ptr noundef nonnull %4) #11
  br label %20

15:                                               ; preds = %3
  %16 = getelementptr inbounds nuw i8, ptr %6, i64 24
  %17 = load i32, ptr %16, align 8
  %18 = and i32 %17, 61440
  %19 = icmp eq i32 %18, 40960
  br label %20

20:                                               ; preds = %15, %14
  %.0 = phi i1 [ false, %14 ], [ %19, %15 ]
  call void @llvm.lifetime.end.p0(i64 144, ptr nonnull %6) #11
  switch i32 %2, label %50 [
    i32 1, label %21
    i32 0, label %47
  ]

21:                                               ; preds = %20
  call fastcc void @do_syncfs(ptr noundef %0)
  %22 = call ptr @opendir(ptr noundef nonnull %5)
  %23 = icmp eq ptr %22, null
  br i1 %23, label %26, label %.preheader

.preheader:                                       ; preds = %21
  %24 = tail call ptr @__errno_location() #12
  store i32 0, ptr %24, align 4
  %25 = call ptr @readdir(ptr noundef nonnull %22) #11
  %.not21 = icmp eq ptr %25, null
  br i1 %.not21, label %._crit_edge, label %sub_0

26:                                               ; preds = %21
  call void (i32, i32, ptr, ...) @pg_log_generic(i32 noundef 4, i32 noundef 0, ptr noundef nonnull @.str.5, ptr noundef nonnull %5) #11
  br label %45

sub_0:                                            ; preds = %.preheader, %39
  %27 = phi ptr [ %40, %39 ], [ %25, %.preheader ]
  call void @llvm.lifetime.start.p0(i64 2048, ptr nonnull %7) #11
  %28 = getelementptr inbounds nuw i8, ptr %27, i64 19
  %29 = load i8, ptr %28, align 1
  %.not22 = icmp eq i8 %29, 46
  br i1 %.not22, label %.tail, label %.tail17.thread

.tail:                                            ; preds = %sub_0
  %30 = getelementptr inbounds nuw i8, ptr %27, i64 20
  %31 = load i8, ptr %30, align 1
  %32 = icmp eq i8 %31, 0
  br i1 %32, label %39, label %sub_119, !llvm.loop !3

sub_119:                                          ; preds = %.tail
  %33 = getelementptr inbounds nuw i8, ptr %27, i64 20
  %34 = load i8, ptr %33, align 1
  %.not24 = icmp eq i8 %34, 46
  br i1 %.not24, label %.tail17, label %.tail17.thread

.tail17:                                          ; preds = %sub_119
  %35 = getelementptr inbounds nuw i8, ptr %27, i64 21
  %36 = load i8, ptr %35, align 1
  %37 = icmp eq i8 %36, 0
  br i1 %37, label %39, label %.tail17.thread, !llvm.loop !3

.tail17.thread:                                   ; preds = %sub_0, %sub_119, %.tail17
  %38 = call i32 (ptr, i64, ptr, ...) @pg_snprintf(ptr noundef nonnull %7, i64 noundef 2048, ptr noundef nonnull @.str, ptr noundef nonnull %5, ptr noundef nonnull %28) #11
  call fastcc void @do_syncfs(ptr noundef nonnull %7)
  br label %39

39:                                               ; preds = %.tail, %.tail17, %.tail17.thread
  call void @llvm.lifetime.end.p0(i64 2048, ptr nonnull %7) #11
  store i32 0, ptr %24, align 4
  %40 = call ptr @readdir(ptr noundef nonnull %22) #11
  %.not = icmp eq ptr %40, null
  br i1 %.not, label %._crit_edge, label %sub_0

._crit_edge:                                      ; preds = %39, %.preheader
  %41 = load i32, ptr %24, align 4
  %.not16 = icmp eq i32 %41, 0
  br i1 %.not16, label %43, label %42

42:                                               ; preds = %._crit_edge
  call void (i32, i32, ptr, ...) @pg_log_generic(i32 noundef 4, i32 noundef 0, ptr noundef nonnull @.str.8, ptr noundef nonnull %5) #11
  br label %43

43:                                               ; preds = %42, %._crit_edge
  %44 = call i32 @closedir(ptr noundef nonnull %22)
  br label %45

45:                                               ; preds = %43, %26
  br i1 %.0, label %46, label %50

46:                                               ; preds = %45
  call fastcc void @do_syncfs(ptr noundef nonnull %4)
  br label %50

47:                                               ; preds = %20
  call fastcc void @walkdir(ptr noundef %0, ptr noundef nonnull @pre_sync_fname, i1 noundef zeroext false)
  br i1 %.0, label %48, label %.critedge

48:                                               ; preds = %47
  call fastcc void @walkdir(ptr noundef nonnull %4, ptr noundef nonnull @pre_sync_fname, i1 noundef zeroext false)
  call fastcc void @walkdir(ptr noundef nonnull %5, ptr noundef nonnull @pre_sync_fname, i1 noundef zeroext true)
  call fastcc void @walkdir(ptr noundef %0, ptr noundef nonnull @fsync_fname, i1 noundef zeroext false)
  br label %49

.critedge:                                        ; preds = %47
  call fastcc void @walkdir(ptr noundef nonnull %5, ptr noundef nonnull @pre_sync_fname, i1 noundef zeroext true)
  br label %49

49:                                               ; preds = %.critedge, %48
  %.sink = phi ptr [ %0, %.critedge ], [ %4, %48 ]
  call fastcc void @walkdir(ptr noundef %.sink, ptr noundef nonnull @fsync_fname, i1 noundef zeroext false)
  call fastcc void @walkdir(ptr noundef nonnull %5, ptr noundef nonnull @fsync_fname, i1 noundef zeroext true)
  br label %50

50:                                               ; preds = %45, %46, %49, %20
  call void @llvm.lifetime.end.p0(i64 1024, ptr nonnull %5) #11
  call void @llvm.lifetime.end.p0(i64 1024, ptr nonnull %4) #11
  ret void
}